target datalayout = "e-m:e-p270:32:32-p271:32:32-p272:64:64-i64:64-i128:128-f80:128-n8:16:32:64-S128"
target triple = "x86_64-pc-linux-gnu"

%struct.MultiXactMember = type { i32, i32 }

; Function Attrs: nounwind uwtable
define dso_local i32 @MultiXactIdCreate(i32 noundef %0, i32 noundef %1, i32 noundef %2, i32 noundef %3) #0 {
  %5 = alloca i32, align 4
  %6 = alloca i32, align 4
  %7 = alloca i32, align 4
  %8 = alloca i32, align 4
  %9 = alloca i32, align 4
  %10 = alloca [2 x %struct.MultiXactMember], align 16
  store i32 %0, ptr %5, align 4
  store i32 %1, ptr %6, align 4
  store i32 %2, ptr %7, align 4
  store i32 %3, ptr %8, align 4
  call void @llvm.lifetime.start.p0(i64 4, ptr %9) #9
  call void @llvm.lifetime.start.p0(i64 16, ptr %10) #9
  %11 = load i32, ptr %5, align 4
  %12 = getelementptr inbounds [2 x %struct.MultiXactMember], ptr %10, i64 0, i64 0
  %13 = getelementptr inbounds nuw %struct.MultiXactMember, ptr %12, i32 0, i32 0
  store i32 %11, ptr %13, align 16
  %14 = load i32, ptr %6, align 4
  %15 = getelementptr inbounds [2 x %struct.MultiXactMember], ptr %10, i64 0, i64 0
  %16 = getelementptr inbounds nuw %struct.MultiXactMember, ptr %15, i32 0, i32 1
  store i32 %14, ptr %16, align 4
  %17 = load i32, ptr %7, align 4
  %18 = getelementptr inbounds [2 x %struct.MultiXactMember], ptr %10, i64 0, i64 1
  %19 = getelementptr inbounds nuw %struct.MultiXactMember, ptr %18, i32 0, i32 0
  store i32 %17, ptr %19, align 8
  %20 = load i32, ptr %8, align 4
  %21 = getelementptr inbounds [2 x %struct.MultiXactMember], ptr %10, i64 0, i64 1
  %22 = getelementptr inbounds nuw %struct.MultiXactMember, ptr %21, i32 0, i32 1
  store i32 %20, ptr %22, align 4
  %23 = getelementptr inbounds [2 x %struct.MultiXactMember], ptr %10, i64 0, i64 0
  %24 = call i32 @MultiXactIdCreateFromMembers(i32 noundef 2, ptr noundef %23)
  store i32 %24, ptr %9, align 4
  %25 = load i32, ptr %9, align 4
  call void @llvm.lifetime.end.p0(i64 16, ptr %10) #9
  call void @llvm.lifetime.end.p0(i64 4, ptr %9) #9
  ret i32 %25
}