; Function Attrs: nounwind uwtable
define dso_local i32 @MultiXactIdCreate(i32 noundef %0, i32 noundef %1, i32 noundef %2, i32 noundef %3) local_unnamed_addr #0 {
  %5 = alloca [2 x %struct.MultiXactMember], align 16
  call void @llvm.lifetime.start.p0(i64 16, ptr nonnull %5) #13
  store i32 %0, ptr %5, align 16
  %6 = getelementptr inbounds nuw i8, ptr %5, i64 4
  store i32 %1, ptr %6, align 4
  %7 = getelementptr inbounds nuw i8, ptr %5, i64 8
  store i32 %2, ptr %7, align 8
  %8 = getelementptr inbounds nuw i8, ptr %5, i64 12
  store i32 %3, ptr %8, align 4
  %9 = call i32 @MultiXactIdCreateFromMembers(i32 noundef 2, ptr noundef nonnull %5)
  call void @llvm.lifetime.end.p0(i64 16, ptr nonnull %5) #13
  ret i32 %9
}